target datalayout = "e-m:e-p270:32:32-p271:32:32-p272:64:64-i64:64-i128:128-f80:128-n8:16:32:64-S128"
target triple = "x86_64-pc-linux-gnu"

%"class.icu_77::Calendar" = type <{ %"class.icu_77::UObject", [24 x i32], [24 x i8], i8, [7 x i8], double, ptr, i8, i16, i8, i32, i32, i32, i8, i8, i16, [4 x i8], ptr, ptr }>
%"class.icu_77::UObject" = type { ptr }

@_ZN12_GLOBAL__N_114gMinCorrectionE = internal global i32 0, align 4
@_ZL15kPersianNumDays = internal constant [12 x i16] [i16 0, i16 31, i16 62, i16 93, i16 124, i16 155, i16 186, i16 216, i16 246, i16 276, i16 306, i16 336], align 16

; Function Attrs: inlinehint mustprogress nounwind uwtable
define linkonce_odr void @_ZN6icu_778Calendar11internalSetE19UCalendarDateFieldsi(ptr noundef nonnull align 8 dereferenceable(192) %0, i32 noundef %1, i32 noundef %2) #5 comdat align 2 {
  %4 = alloca ptr, align 8
  %5 = alloca i32, align 4
  %6 = alloca i32, align 4
  store ptr %0, ptr %4, align 8, !tbaa !32
  store i32 %1, ptr %5, align 4, !tbaa !13
  store i32 %2, ptr %6, align 4, !tbaa !17
  %7 = load ptr, ptr %4, align 8
  %8 = load i32, ptr %6, align 4, !tbaa !17
  %9 = getelementptr inbounds nuw %"class.icu_77::Calendar", ptr %7, i32 0, i32 1
  %10 = load i32, ptr %5, align 4, !tbaa !13
  %11 = zext i32 %10 to i64
  %12 = getelementptr inbounds nuw [24 x i32], ptr %9, i64 0, i64 %11
  store i32 %8, ptr %12, align 4, !tbaa !17
  %13 = getelementptr inbounds nuw %"class.icu_77::Calendar", ptr %7, i32 0, i32 2
  %14 = load i32, ptr %5, align 4, !tbaa !13
  %15 = zext i32 %14 to i64
  %16 = getelementptr inbounds nuw [24 x i8], ptr %13, i64 0, i64 %15
  store i8 1, ptr %16, align 1, !tbaa !27
  ret void
}

; Function Attrs: mustprogress uwtable
define internal noundef i64 @_ZN6icu_77L17firstJulianOfYearEl(i64 noundef %0) #1 {
  %2 = alloca i64, align 8
  %3 = alloca i64, align 8
  store i64 %0, ptr %2, align 8, !tbaa !19
  call void @llvm.lifetime.start.p0(i64 8, ptr %3) #9
  %4 = load i64, ptr %2, align 8, !tbaa !19
  %5 = sub nsw i64 %4, 1
  %6 = mul nsw i64 365, %5
  %7 = load i64, ptr %2, align 8, !tbaa !19
  %8 = mul nsw i64 8, %7
  %9 = add nsw i64 %8, 21
  %10 = trunc i64 %9 to i32
  %11 = call noundef i32 @_ZN6icu_779ClockMath11floorDivideEii(i32 noundef %10, i32 noundef 33)
  %12 = sext i32 %11 to i64
  %13 = add nsw i64 %6, %12
  store i64 %13, ptr %3, align 8, !tbaa !19
  %14 = load i64, ptr %2, align 8, !tbaa !19
  %15 = load i32, ptr @_ZN12_GLOBAL__N_114gMinCorrectionE, align 4, !tbaa !17
  %16 = sext i32 %15 to i64
  %17 = icmp sgt i64 %14, %16
  br i1 %17, label %18, label %28

18:                                               ; preds = %1
  %19 = call noundef ptr @_ZN12_GLOBAL__N_117getLeapCorrectionEv()
  %20 = load i64, ptr %2, align 8, !tbaa !19
  %21 = sub nsw i64 %20, 1
  %22 = trunc i64 %21 to i32
  %23 = call noundef signext i8 @_ZNK6icu_7710UnicodeSet8containsEi(ptr noundef nonnull align 8 dereferenceable(200) %19, i32 noundef %22)
  %24 = icmp ne i8 %23, 0
  br i1 %24, label %25, label %28

25:                                               ; preds = %18
  %26 = load i64, ptr %3, align 8, !tbaa !19
  %27 = add nsw i64 %26, -1
  store i64 %27, ptr %3, align 8, !tbaa !19
  br label %28

28:                                               ; preds = %25, %18, %1
  %29 = load i64, ptr %3, align 8, !tbaa !19
  call void @llvm.lifetime.end.p0(i64 8, ptr %3) #9
  ret i64 %29
}

; Function Attrs: mustprogress uwtable
define void @_ZN6icu_7715PersianCalendar19handleComputeFieldsEiR10UErrorCode(ptr noundef nonnull align 8 dereferenceable(192) %0, i32 noundef %1, ptr noundef nonnull align 4 dereferenceable(4) %2) unnamed_addr #1 align 2 {
  %4 = alloca ptr, align 8
  %5 = alloca i32, align 4
  %6 = alloca ptr, align 8
  %7 = alloca i64, align 8
  %8 = alloca i64, align 8
  %9 = alloca i32, align 4
  %10 = alloca i64, align 8
  %11 = alloca i32, align 4
  %12 = alloca i32, align 4
  %13 = alloca i32, align 4
  store ptr %0, ptr %4, align 8, !tbaa !3
  store i32 %1, ptr %5, align 4, !tbaa !17
  store ptr %2, ptr %6, align 8, !tbaa !10
  %14 = load ptr, ptr %4, align 8
  call void @llvm.lifetime.start.p0(i64 8, ptr %7) #9
  %15 = load i32, ptr %5, align 4, !tbaa !17
  %16 = sext i32 %15 to i64
  store i64 %16, ptr %7, align 8, !tbaa !19
  %17 = load i64, ptr %7, align 8, !tbaa !19
  %18 = sub nsw i64 %17, 1948320
  store i64 %18, ptr %7, align 8, !tbaa !19
  call void @llvm.lifetime.start.p0(i64 8, ptr %8) #9
  %19 = load i64, ptr %7, align 8, !tbaa !19
  %20 = mul nsw i64 33, %19
  %21 = add nsw i64 %20, 3
  %22 = call noundef i64 @_ZN6icu_779ClockMath16floorDivideInt64Ell(i64 noundef %21, i64 noundef 12053)
  %23 = add nsw i64 %22, 1
  store i64 %23, ptr %8, align 8, !tbaa !19
  %24 = load i64, ptr %8, align 8, !tbaa !19
  %25 = icmp sgt i64 %24, 2147483647
  br i1 %25, label %29, label %26

26:                                               ; preds = %3
  %27 = load i64, ptr %8, align 8, !tbaa !19
  %28 = icmp slt i64 %27, -2147483648
  br i1 %28, label %29, label %31

29:                                               ; preds = %26, %3
  %30 = load ptr, ptr %6, align 8, !tbaa !10
  store i32 1, ptr %30, align 4, !tbaa !28
  store i32 1, ptr %9, align 4
  br label %82

31:                                               ; preds = %26
  call void @llvm.lifetime.start.p0(i64 8, ptr %10) #9
  %32 = load i64, ptr %8, align 8, !tbaa !19
  %33 = call noundef i64 @_ZN6icu_77L17firstJulianOfYearEl(i64 noundef %32)
  store i64 %33, ptr %10, align 8, !tbaa !19
  call void @llvm.lifetime.start.p0(i64 4, ptr %11) #9
  %34 = load i64, ptr %7, align 8, !tbaa !19
  %35 = load i64, ptr %10, align 8, !tbaa !19
  %36 = sub nsw i64 %34, %35
  %37 = trunc i64 %36 to i32
  store i32 %37, ptr %11, align 4, !tbaa !17
  %38 = load i32, ptr %11, align 4, !tbaa !17
  %39 = icmp eq i32 %38, 365
  br i1 %39, label %40, label %54

40:                                               ; preds = %31
  %41 = load i64, ptr %8, align 8, !tbaa !19
  %42 = load i32, ptr @_ZN12_GLOBAL__N_114gMinCorrectionE, align 4, !tbaa !17
  %43 = sext i32 %42 to i64
  %44 = icmp sge i64 %41, %43
  br i1 %44, label %45, label %54

45:                                               ; preds = %40
  %46 = call noundef ptr @_ZN12_GLOBAL__N_117getLeapCorrectionEv()
  %47 = load i64, ptr %8, align 8, !tbaa !19
  %48 = trunc i64 %47 to i32
  %49 = call noundef signext i8 @_ZNK6icu_7710UnicodeSet8containsEi(ptr noundef nonnull align 8 dereferenceable(200) %46, i32 noundef %48)
  %50 = icmp ne i8 %49, 0
  br i1 %50, label %51, label %54

51:                                               ; preds = %45
  %52 = load i64, ptr %8, align 8, !tbaa !19
  %53 = add nsw i64 %52, 1
  store i64 %53, ptr %8, align 8, !tbaa !19
  store i32 0, ptr %11, align 4, !tbaa !17
  br label %54

54:                                               ; preds = %51, %45, %40, %31
  call void @llvm.lifetime.start.p0(i64 4, ptr %12) #9
  %55 = load i32, ptr %11, align 4, !tbaa !17
  %56 = icmp slt i32 %55, 216
  br i1 %56, label %57, label %60

57:                                               ; preds = %54
  %58 = load i32, ptr %11, align 4, !tbaa !17
  %59 = sdiv i32 %58, 31
  store i32 %59, ptr %12, align 4, !tbaa !17
  br label %64

60:                                               ; preds = %54
  %61 = load i32, ptr %11, align 4, !tbaa !17
  %62 = sub nsw i32 %61, 6
  %63 = sdiv i32 %62, 30
  store i32 %63, ptr %12, align 4, !tbaa !17
  br label %64

64:                                               ; preds = %60, %57
  %65 = load i32, ptr %11, align 4, !tbaa !17
  %66 = add nsw i32 %65, 1
  store i32 %66, ptr %11, align 4, !tbaa !17
  call void @llvm.lifetime.start.p0(i64 4, ptr %13) #9
  %67 = load i32, ptr %11, align 4, !tbaa !17
  %68 = load i32, ptr %12, align 4, !tbaa !17
  %69 = sext i32 %68 to i64
  %70 = getelementptr inbounds [12 x i16], ptr @_ZL15kPersianNumDays, i64 0, i64 %69
  %71 = load i16, ptr %70, align 2, !tbaa !30
  %72 = sext i16 %71 to i32
  %73 = sub nsw i32 %67, %72
  store i32 %73, ptr %13, align 4, !tbaa !17
  call void @_ZN6icu_778Calendar11internalSetE19UCalendarDateFieldsi(ptr noundef nonnull align 8 dereferenceable(192) %14, i32 noundef 0, i32 noundef 0)
  %74 = load i64, ptr %8, align 8, !tbaa !19
  %75 = trunc i64 %74 to i32
  call void @_ZN6icu_778Calendar11internalSetE19UCalendarDateFieldsi(ptr noundef nonnull align 8 dereferenceable(192) %14, i32 noundef 1, i32 noundef %75)
  %76 = load i64, ptr %8, align 8, !tbaa !19
  %77 = trunc i64 %76 to i32
  call void @_ZN6icu_778Calendar11internalSetE19UCalendarDateFieldsi(ptr noundef nonnull align 8 dereferenceable(192) %14, i32 noundef 19, i32 noundef %77)
  %78 = load i32, ptr %12, align 4, !tbaa !17
  call void @_ZN6icu_778Calendar11internalSetE19UCalendarDateFieldsi(ptr noundef nonnull align 8 dereferenceable(192) %14, i32 noundef 2, i32 noundef %78)
  %79 = load i32, ptr %12, align 4, !tbaa !17
  call void @_ZN6icu_778Calendar11internalSetE19UCalendarDateFieldsi(ptr noundef nonnull align 8 dereferenceable(192) %14, i32 noundef 23, i32 noundef %79)
  %80 = load i32, ptr %13, align 4, !tbaa !17
  call void @_ZN6icu_778Calendar11internalSetE19UCalendarDateFieldsi(ptr noundef nonnull align 8 dereferenceable(192) %14, i32 noundef 5, i32 noundef %80)
  %81 = load i32, ptr %11, align 4, !tbaa !17
  call void @_ZN6icu_778Calendar11internalSetE19UCalendarDateFieldsi(ptr noundef nonnull align 8 dereferenceable(192) %14, i32 noundef 6, i32 noundef %81)
  call void @llvm.lifetime.end.p0(i64 4, ptr %13) #9
  call void @llvm.lifetime.end.p0(i64 4, ptr %12) #9
  call void @llvm.lifetime.end.p0(i64 4, ptr %11) #9
  call void @llvm.lifetime.end.p0(i64 8, ptr %10) #9
  store i32 0, ptr %9, align 4
  br label %82

82:                                               ; preds = %64, %29
  call void @llvm.lifetime.end.p0(i64 8, ptr %8) #9
  call void @llvm.lifetime.end.p0(i64 8, ptr %7) #9
  %83 = load i32, ptr %9, align 4
  switch i32 %83, label %85 [
    i32 0, label %84
    i32 1, label %84
  ]

84:                                               ; preds = %82, %82
  ret void

85:                                               ; preds = %82
  unreachable
}