; Function Attrs: mustprogress uwtable
define void @_ZN6icu_7715PersianCalendar19handleComputeFieldsEiR10UErrorCode(ptr noundef nonnull writeonly align 8 captures(none) dereferenceable(192) %0, i32 noundef %1, ptr noundef nonnull writeonly align 4 captures(none) dereferenceable(4) %2) unnamed_addr #1 align 2 {
  %4 = sext i32 %1 to i64
  %5 = add nsw i64 %4, -1948320
  %6 = mul nsw i64 %5, 33
  %7 = add nsw i64 %6, 3
  %8 = tail call noundef i64 @_ZN6icu_779ClockMath16floorDivideInt64Ell(i64 noundef %7, i64 noundef 12053)
  %9 = add nsw i64 %8, 1
  %10 = add i64 %8, -2147483647
  %or.cond = icmp ult i64 %10, -4294967296
  br i1 %or.cond, label %11, label %12

11:                                               ; preds = %3
  store i32 1, ptr %2, align 4, !tbaa !15
  br label %60

12:                                               ; preds = %3
  %13 = mul nsw i64 %8, 365
  %.tr.i = trunc i64 %9 to i32
  %14 = shl i32 %.tr.i, 3
  %15 = add i32 %14, 21
  %16 = tail call noundef i32 @_ZN6icu_779ClockMath11floorDivideEii(i32 noundef %15, i32 noundef 33)
  %17 = zext i32 %16 to i64
  %18 = add nsw i64 %13, %17
  %.b = load i1, ptr @_ZN12_GLOBAL__N_114gMinCorrectionE, align 4
  %19 = select i1 %.b, i64 1502, i64 0
  %.not43 = icmp slt i64 %8, %19
  br i1 %.not43, label %_ZN6icu_77L17firstJulianOfYearEl.exit, label %20

20:                                               ; preds = %12
  %21 = tail call fastcc noundef ptr @_ZN12_GLOBAL__N_117getLeapCorrectionEv()
  %22 = trunc i64 %8 to i32
  %23 = tail call noundef signext i8 @_ZNK6icu_7710UnicodeSet8containsEi(ptr noundef nonnull align 8 dereferenceable(200) %21, i32 noundef %22)
  %.not.i = icmp ne i8 %23, 0
  %24 = sext i1 %.not.i to i64
  %spec.select.i = add nsw i64 %18, %24
  br label %_ZN6icu_77L17firstJulianOfYearEl.exit

_ZN6icu_77L17firstJulianOfYearEl.exit:            ; preds = %12, %20
  %.0.i = phi i64 [ %18, %12 ], [ %spec.select.i, %20 ]
  %25 = sub nsw i64 %5, %.0.i
  %26 = trunc i64 %25 to i32
  %27 = icmp eq i32 %26, 365
  br i1 %27, label %28, label %34

28:                                               ; preds = %_ZN6icu_77L17firstJulianOfYearEl.exit
  %.b45 = load i1, ptr @_ZN12_GLOBAL__N_114gMinCorrectionE, align 4
  %29 = select i1 %.b45, i64 1502, i64 0
  %.not = icmp slt i64 %9, %29
  br i1 %.not, label %.thread, label %30

30:                                               ; preds = %28
  %31 = tail call fastcc noundef ptr @_ZN12_GLOBAL__N_117getLeapCorrectionEv()
  %32 = tail call noundef signext i8 @_ZNK6icu_7710UnicodeSet8containsEi(ptr noundef nonnull align 8 dereferenceable(200) %31, i32 noundef %.tr.i)
  %.not30 = icmp eq i8 %32, 0
  br i1 %.not30, label %.thread, label %..thread38_crit_edge

..thread38_crit_edge:                             ; preds = %30
  %33 = trunc i64 %8 to i32
  %.pre44 = add i32 %33, 2
  br label %.thread38

34:                                               ; preds = %_ZN6icu_77L17firstJulianOfYearEl.exit
  %35 = icmp slt i32 %26, 216
  br i1 %35, label %.thread38, label %.thread

.thread38:                                        ; preds = %..thread38_crit_edge, %34
  %.pre.pre-phi = phi i32 [ %.pre44, %..thread38_crit_edge ], [ %.tr.i, %34 ]
  %.02642 = phi i32 [ 0, %..thread38_crit_edge ], [ %26, %34 ]
  %36 = sdiv i32 %.02642, 31
  br label %39

.thread:                                          ; preds = %30, %28, %34
  %37 = add nsw i32 %26, -6
  %38 = udiv i32 %37, 30
  br label %39

39:                                               ; preds = %.thread, %.thread38
  %.pre-phi = phi i32 [ %.tr.i, %.thread ], [ %.pre.pre-phi, %.thread38 ]
  %.02636 = phi i32 [ %26, %.thread ], [ %.02642, %.thread38 ]
  %.0 = phi i32 [ %38, %.thread ], [ %36, %.thread38 ]
  %40 = add nsw i32 %.02636, 1
  %41 = sext i32 %.0 to i64
  %42 = getelementptr inbounds [12 x i16], ptr @_ZL15kPersianNumDays, i64 0, i64 %41
  %43 = load i16, ptr %42, align 2, !tbaa !9
  %44 = sext i16 %43 to i32
  %45 = sub nsw i32 %40, %44
  %46 = getelementptr inbounds nuw i8, ptr %0, i64 8
  store i32 0, ptr %46, align 8, !tbaa !6
  %47 = getelementptr inbounds nuw i8, ptr %0, i64 104
  store i8 1, ptr %47, align 8, !tbaa !14
  %48 = getelementptr inbounds nuw i8, ptr %0, i64 12
  store i32 %.pre-phi, ptr %48, align 4, !tbaa !6
  %49 = getelementptr inbounds nuw i8, ptr %0, i64 105
  store i8 1, ptr %49, align 1, !tbaa !14
  %50 = getelementptr inbounds nuw i8, ptr %0, i64 84
  store i32 %.pre-phi, ptr %50, align 4, !tbaa !6
  %51 = getelementptr inbounds nuw i8, ptr %0, i64 123
  store i8 1, ptr %51, align 1, !tbaa !14
  %52 = getelementptr inbounds nuw i8, ptr %0, i64 16
  store i32 %.0, ptr %52, align 8, !tbaa !6
  %53 = getelementptr inbounds nuw i8, ptr %0, i64 106
  store i8 1, ptr %53, align 2, !tbaa !14
  %54 = getelementptr inbounds nuw i8, ptr %0, i64 100
  store i32 %.0, ptr %54, align 4, !tbaa !6
  %55 = getelementptr inbounds nuw i8, ptr %0, i64 127
  store i8 1, ptr %55, align 1, !tbaa !14
  %56 = getelementptr inbounds nuw i8, ptr %0, i64 28
  store i32 %45, ptr %56, align 4, !tbaa !6
  %57 = getelementptr inbounds nuw i8, ptr %0, i64 109
  store i8 1, ptr %57, align 1, !tbaa !14
  %58 = getelementptr inbounds nuw i8, ptr %0, i64 32
  store i32 %40, ptr %58, align 8, !tbaa !6
  %59 = getelementptr inbounds nuw i8, ptr %0, i64 110
  store i8 1, ptr %59, align 2, !tbaa !14
  br label %60

60:                                               ; preds = %39, %11
  ret void
}